; Function Attrs: mustprogress nofree norecurse nosync nounwind willreturn memory(argmem: read) uwtable
define { i64, i64 } @_ZN5arrowcoERKNS_15BasicDecimal128E(ptr noundef nonnull readonly align 8 captures(none) dereferenceable(16) %0) local_unnamed_addr #7 {
  %2 = getelementptr inbounds nuw i8, ptr %0, i64 8
  %3 = load i64, ptr %2, align 8, !tbaa !7
  %4 = xor i64 %3, -1
  %5 = load i64, ptr %0, align 8, !tbaa !7
  %6 = xor i64 %5, -1
  %.fca.0.insert = insertvalue { i64, i64 } poison, i64 %6, 0
  %.fca.1.insert = insertvalue { i64, i64 } %.fca.0.insert, i64 %4, 1
  ret { i64, i64 } %.fca.1.insert
}